; Function Attrs: mustprogress uwtable
define void @_ZN2cv3hal6SVD64fEPdmS1_S1_mS1_miii(ptr noundef %0, i64 noundef %1, ptr noundef %2, ptr noundef readnone captures(none) %3, i64 noundef %4, ptr noundef %5, i64 noundef %6, i32 noundef %7, i32 noundef %8, i32 noundef %9) local_unnamed_addr #0 personality ptr @__gxx_personality_v0 {
  %11 = icmp eq ptr %5, null
  br i1 %11, label %.split31, label %.split

.split:                                           ; preds = %10
  %12 = icmp slt i32 %9, 0
  %13 = select i1 %12, i32 %8, i32 %9
  tail call void @_ZN2cv14JacobiSVDImpl_IdEEvPT_mS2_S2_miiidS1_(ptr noundef %0, i64 noundef %1, ptr noundef %2, ptr noundef nonnull %5, i64 noundef %6, i32 noundef %7, i32 noundef %8, i32 noundef %13, double noundef 0x10000000000000, double noundef 0x3CE4000000000000)
  br label %14

.split31:                                         ; preds = %10
  tail call void @_ZN2cv14JacobiSVDImpl_IdEEvPT_mS2_S2_miiidS1_(ptr noundef %0, i64 noundef %1, ptr noundef %2, ptr noundef null, i64 noundef %6, i32 noundef %7, i32 noundef %8, i32 noundef 0, double noundef 0x10000000000000, double noundef 0x3CE4000000000000)
  br label %14

14:                                               ; preds = %.split, %.split31
  ret void
}